target datalayout = "e-m:e-p270:32:32-p271:32:32-p272:64:64-i64:64-i128:128-f80:128-n8:16:32:64-S128"
target triple = "x86_64-unknown-linux-gnu"

%"class.std::__shared_count" = type { ptr }
%"class.std::shared_ptr.8" = type { %"class.std::__shared_ptr.9" }
%"class.std::__shared_ptr.9" = type { ptr, %"class.std::__shared_count" }
%"struct.arrow::compute::internal::FixedWidthKeyEncoder" = type <{ %"struct.arrow::compute::internal::KeyEncoder", %"class.std::shared_ptr.8", i32, [4 x i8] }>
%"struct.arrow::compute::internal::KeyEncoder" = type { ptr }

; Function Attrs: mustprogress nounwind uwtable
define void @_ZN5arrow7compute8internal20FixedWidthKeyEncoder13AddLengthNullEPi(ptr noundef nonnull align 8 dereferenceable(28) %this, ptr noundef %length) unnamed_addr #2 align 2 {
entry:
  %this.addr = alloca ptr, align 8
  %length.addr = alloca ptr, align 8
  store ptr %this, ptr %this.addr, align 8
  store ptr %length, ptr %length.addr, align 8
  %this1 = load ptr, ptr %this.addr, align 8
  %byte_width_ = getelementptr inbounds %"struct.arrow::compute::internal::FixedWidthKeyEncoder", ptr %this1, i32 0, i32 2
  %0 = load i32, ptr %byte_width_, align 8
  %add = add nsw i32 %0, 1
  %1 = load ptr, ptr %length.addr, align 8
  %2 = load i32, ptr %1, align 4
  %add2 = add nsw i32 %2, %add
  store i32 %add2, ptr %1, align 4
  ret void
}