; Function Attrs: mustprogress nofree norecurse nosync nounwind willreturn memory(argmem: readwrite) uwtable
define void @_ZN5arrow7compute8internal20FixedWidthKeyEncoder13AddLengthNullEPi(ptr nocapture noundef nonnull readonly align 8 dereferenceable(28) %this, ptr nocapture noundef %length) unnamed_addr #4 align 2 {
entry:
  %byte_width_ = getelementptr inbounds i8, ptr %this, i64 24
  %0 = load i32, ptr %byte_width_, align 8
  %add = add nsw i32 %0, 1
  %1 = load i32, ptr %length, align 4
  %add2 = add nsw i32 %add, %1
  store i32 %add2, ptr %length, align 4
  ret void
}